Certificate:
    Data:
        Version: 3 (0x2)
        Serial Number: 42 (0x2a)
        Signature Algorithm: sha256WithRSAEncryption
        Issuer: C=AU, ST=NSW, O=LOLINTERNET, OU=LOLINTERNET Certificate Authority, CN=LOLINTERNET Intermediate CA/emailAddress=lol@lolinternet.xyz
        Validity
            Not Before: Aug  8 00:59:38 2022 GMT
            Not After : Nov 20 00:59:38 2025 GMT
        Subject: C=AU, ST=NSW, O=LOLINTERNET, OU=LOLINTERNET, CN=goat.lolinternet.xyz
        Subject Public Key Info:
            Public Key Algorithm: rsaEncryption
                RSA Public-Key: (4096 bit)
                Modulus:
                    00:97:77:30:a2:c0:95:1f:21:89:8f:2d:5e:09:f3:
                    76:dd:8c:26:7c:f3:00:f1:0a:16:da:81:ec:f0:89:
                    05:cf:a1:f7:70:b4:2e:9c:01:4b:a0:a1:3e:d0:14:
                    65:c1:14:74:8e:53:30:0f:aa:76:28:96:69:08:b0:
                    ca:f7:e6:58:e4:f4:79:0f:d2:15:7f:b0:b4:68:63:
                    92:4e:e7:a4:2f:5d:10:47:1f:7d:5b:0d:40:f3:ad:
                    0d:27:3d:f5:19:fe:92:cf:a8:b6:03:3b:80:6e:e2:
                    05:6a:ee:0b:13:ab:6a:75:0c:74:51:52:ab:d0:14:
                    2b:1c:ea:0a:92:f5:2e:38:4a:0f:a4:35:f5:81:c6:
                    38:94:44:71:90:69:64:b9:fc:a1:1b:14:bc:13:2c:
                    39:f6:54:ee:2f:c8:c0:ec:94:1c:f7:24:96:b3:fd:
                    fd:62:5a:ac:a3:52:59:0f:f9:75:50:c1:89:56:c7:
                    df:2b:d9:7a:31:c4:d9:6b:69:9e:77:a5:2c:78:eb:
                    52:a1:02:18:69:e5:06:47:05:a5:11:31:31:1b:30:
                    93:fe:be:56:79:a3:df:e5:0f:7b:b3:70:2d:f5:9c:
                    1c:e9:7c:03:65:ac:ae:4f:1d:7e:ec:f8:db:04:a1:
                    85:ee:d4:32:1f:ed:0e:90:35:63:23:cd:ce:df:34:
                    14:bd:bb:26:6c:6e:51:2c:5c:8c:08:61:2f:09:f9:
                    e6:e2:df:d6:cd:6d:d3:f6:4a:cb:6a:44:2b:e6:9f:
                    de:72:dd:11:6b:74:d3:be:b0:88:88:42:5e:ca:02:
                    c4:37:88:b3:82:15:1f:62:33:27:ac:60:dd:4d:db:
                    ac:d7:6b:7c:4e:9a:cb:fa:87:b4:66:e1:31:4f:18:
                    ed:67:67:9a:fe:18:f7:d3:a1:d9:38:f8:a0:72:57:
                    30:2c:46:44:f0:c9:9a:fe:d3:ff:77:2b:e6:0b:97:
                    21:37:eb:2e:21:a8:b3:ff:30:ba:be:38:99:10:34:
                    28:10:76:63:25:f1:0f:a5:ec:20:f3:05:45:ef:a0:
                    f7:53:ff:0f:b5:09:43:38:6c:80:1e:e5:2f:12:d6:
                    57:e4:1d:b2:a8:5f:36:bb:a5:de:79:36:43:22:07:
                    eb:56:bb:ba:44:07:bf:b4:35:38:02:be:77:bf:b7:
                    e3:48:3e:2e:bc:1c:bd:9f:52:fc:23:9f:b2:02:d8:
                    73:82:e7:7b:30:4b:c7:69:e4:84:b4:82:f7:ae:ab:
                    91:22:42:fa:16:33:8b:c5:18:8b:7a:31:23:cc:84:
                    3b:e8:bf:b5:ae:0b:27:4a:26:e2:6a:f5:51:7f:2a:
                    9f:e3:51:bc:c1:fd:42:6e:73:ed:80:87:77:b2:98:
                    72:3c:7f
                Exponent: 65537 (0x10001)
        X509v3 extensions:
            X509v3 Basic Constraints: 
                CA:FALSE
            Netscape Cert Type: 
                SSL Server
            X509v3 Subject Key Identifier: 
                C0:1C:CA:44:9F:96:77:3F:33:8C:F8:A6:3A:EC:83:35:88:03:F1:41
            X509v3 Authority Key Identifier: 
                keyid:E2:93:37:E1:74:48:3D:24:D2:36:20:4C:C0:89:44:79:9A:2F:5C:EE
                DirName:/C=AU/ST=NSW/L=Sydney/O=LOLINTERNET/OU=LOLINTERNET Certificate Authority/CN=LOLINTERNET Root CA/emailAddress=lol@lolinternet.xyz
                serial:01

            X509v3 Key Usage: critical
                Digital Signature, Key Encipherment
            X509v3 Extended Key Usage: 
                TLS Web Server Authentication
            X509v3 Subject Alternative Name: 
                DNS:update.code.visualstudio.com, DNS:az764295.vo.msecnd.net, DNS:marketplace.visualstudio.com
    Signature Algorithm: sha256WithRSAEncryption
         94:39:40:d3:c2:92:29:bf:33:3a:68:05:9a:7d:9d:46:e2:11:
         66:07:01:31:bf:f0:e1:e8:29:4d:b7:20:1d:9e:09:38:dd:21:
         b1:89:20:0e:72:fc:d7:4d:8b:f6:e5:4e:91:84:1c:19:ef:1e:
         14:e1:65:4f:d7:3d:84:1c:f6:53:1a:59:e2:a4:86:84:5c:a3:
         6c:29:5d:a6:25:82:a1:f6:d3:e7:e9:9f:b5:72:2b:bd:4a:47:
         30:94:66:8b:56:96:7e:e2:31:fc:42:f5:d8:99:b3:d9:ff:d5:
         34:46:f6:cf:ee:8a:b2:c0:8c:27:19:f4:41:b8:d3:45:48:72:
         d6:01:9e:d9:5c:94:06:58:38:c0:8a:09:d1:32:75:75:ea:5e:
         26:01:2b:da:8b:60:d0:00:63:22:59:16:c0:13:0f:46:89:e1:
         af:30:fb:b8:56:48:70:07:8a:b8:72:27:c7:94:c0:7d:34:2a:
         ec:f8:83:68:40:49:81:99:f8:f2:d1:6e:16:c8:05:65:52:4f:
         f8:a6:0f:d4:6a:69:f6:05:e6:e6:82:1e:e7:ef:e3:4c:04:0a:
         ed:94:aa:10:11:23:e2:cd:c9:87:9d:50:23:09:58:f2:c5:aa:
         99:13:64:7f:12:55:ff:40:08:a0:a6:11:6a:74:7f:08:d6:6f:
         2b:f1:07:c2:73:46:1a:82:05:45:94:7a:71:64:46:8b:be:93:
         54:b7:f6:5a:d5:a1:d8:d0:8a:74:b9:8c:0a:f8:22:dc:3e:1d:
         f0:59:87:b4:d5:f8:34:df:e8:e9:d4:10:f1:d0:57:38:ea:a3:
         e2:cf:e0:3c:83:63:d4:7f:05:a2:f3:07:80:fc:55:af:5a:7e:
         aa:9a:06:b2:f2:d7:ba:28:af:de:4b:c9:e0:ff:d5:6b:e3:5a:
         a9:48:04:f8:6d:6b:54:ec:9a:19:d4:53:b0:ed:b2:3a:19:5a:
         49:a3:7b:60:22:39:53:fe:f9:85:07:04:58:1a:ac:50:e5:be:
         20:85:78:19:55:1a:a5:54:1c:c9:1b:12:d0:9b:1c:0f:ed:e8:
         ea:54:79:25:6c:01:ef:49:98:57:32:6c:04:92:80:1c:89:fb:
         f6:3b:7d:a3:02:da:f5:ea:ac:19:18:bf:fc:bf:98:b6:bf:b9:
         40:96:f8:96:56:16:91:7a:d0:2c:a6:e4:d6:5d:af:15:23:f9:
         08:94:a3:08:13:f0:95:91:17:17:ae:83:ef:46:37:8a:74:4a:
         ee:6b:06:f1:09:43:e5:da:03:8d:6b:f2:28:9c:f8:86:8f:c0:
         bb:77:0c:43:fb:45:50:17:a3:3a:08:26:0e:d2:0f:24:e0:b1:
         bc:a2:95:d4:6c:ee:5e:e5
-----BEGIN CERTIFICATE-----
MIIHMDCCBRigAwIBAgIBKjANBgkqhkiG9w0BAQsFADCBpzELMAkGA1UEBhMCQVUx
DDAKBgNVBAgMA05TVzEUMBIGA1UECgwLTE9MSU5URVJORVQxKjAoBgNVBAsMIUxP
TElOVEVSTkVUIENlcnRpZmljYXRlIEF1dGhvcml0eTEkMCIGA1UEAwwbTE9MSU5U
RVJORVQgSW50ZXJtZWRpYXRlIENBMSIwIAYJKoZIhvcNAQkBFhNsb2xAbG9saW50
ZXJuZXQueHl6MB4XDTIyMDgwODAwNTkzOFoXDTI1MTEyMDAwNTkzOFowZjELMAkG
A1UEBhMCQVUxDDAKBgNVBAgMA05TVzEUMBIGA1UECgwLTE9MSU5URVJORVQxFDAS
BgNVBAsMC0xPTElOVEVSTkVUMR0wGwYDVQQDDBRnb2F0LmxvbGludGVybmV0Lnh5
ejCCAiIwDQYJKoZIhvcNAQEBBQADggIPADCCAgoCggIBAJd3MKLAlR8hiY8tXgnz
dt2MJnzzAPEKFtqB7PCJBc+h93C0LpwBS6ChPtAUZcEUdI5TMA+qdiiWaQiwyvfm
WOT0eQ/SFX+wtGhjkk7npC9dEEcffVsNQPOtDSc99Rn+ks+otgM7gG7iBWruCxOr
anUMdFFSq9AUKxzqCpL1LjhKD6Q19YHGOJREcZBpZLn8oRsUvBMsOfZU7i/IwOyU
HPcklrP9/WJarKNSWQ/5dVDBiVbH3yvZejHE2WtpnnelLHjrUqECGGnlBkcFpREx
MRswk/6+Vnmj3+UPe7NwLfWcHOl8A2Wsrk8dfuz42wShhe7UMh/tDpA1YyPNzt80
FL27JmxuUSxcjAhhLwn55uLf1s1t0/ZKy2pEK+af3nLdEWt0076wiIhCXsoCxDeI
s4IVH2IzJ6xg3U3brNdrfE6ay/qHtGbhMU8Y7Wdnmv4Y99Oh2Tj4oHJXMCxGRPDJ
mv7T/3cr5guXITfrLiGos/8wur44mRA0KBB2YyXxD6XsIPMFRe+g91P/D7UJQzhs
gB7lLxLWV+QdsqhfNrul3nk2QyIH61a7ukQHv7Q1OAK+d7+340g+LrwcvZ9S/COf
sgLYc4LnezBLx2nkhLSC966rkSJC+hYzi8UYi3oxI8yEO+i/ta4LJ0om4mr1UX8q
n+NRvMH9Qm5z7YCHd7KYcjx/AgMBAAGjggGlMIIBoTAJBgNVHRMEAjAAMBEGCWCG
SAGG+EIBAQQEAwIGQDAdBgNVHQ4EFgQUwBzKRJ+Wdz8zjPimOuyDNYgD8UEwgd0G
A1UdIwSB1TCB0oAU4pM34XRIPSTSNiBMwIlEeZovXO6hgbakgbMwgbAxCzAJBgNV
BAYTAkFVMQwwCgYDVQQIDANOU1cxDzANBgNVBAcMBlN5ZG5leTEUMBIGA1UECgwL
TE9MSU5URVJORVQxKjAoBgNVBAsMIUxPTElOVEVSTkVUIENlcnRpZmljYXRlIEF1
dGhvcml0eTEcMBoGA1UEAwwTTE9MSU5URVJORVQgUm9vdCBDQTEiMCAGCSqGSIb3
DQEJARYTbG9sQGxvbGludGVybmV0Lnh5eoIBATAOBgNVHQ8BAf8EBAMCBaAwEwYD
VR0lBAwwCgYIKwYBBQUHAwEwXQYDVR0RBFYwVIIcdXBkYXRlLmNvZGUudmlzdWFs
c3R1ZGlvLmNvbYIWYXo3NjQyOTUudm8ubXNlY25kLm5ldIIcbWFya2V0cGxhY2Uu
dmlzdWFsc3R1ZGlvLmNvbTANBgkqhkiG9w0BAQsFAAOCAgEAlDlA08KSKb8zOmgF
mn2dRuIRZgcBMb/w4egpTbcgHZ4JON0hsYkgDnL8102L9uVOkYQcGe8eFOFlT9c9
hBz2UxpZ4qSGhFyjbCldpiWCofbT5+mftXIrvUpHMJRmi1aWfuIx/EL12Jmz2f/V
NEb2z+6KssCMJxn0QbjTRUhy1gGe2VyUBlg4wIoJ0TJ1depeJgEr2otg0ABjIlkW
wBMPRonhrzD7uFZIcAeKuHInx5TAfTQq7PiDaEBJgZn48tFuFsgFZVJP+KYP1Gpp
9gXm5oIe5+/jTAQK7ZSqEBEj4s3Jh51QIwlY8sWqmRNkfxJV/0AIoKYRanR/CNZv
K/EHwnNGGoIFRZR6cWRGi76TVLf2WtWh2NCKdLmMCvgi3D4d8FmHtNX4NN/o6dQQ
8dBXOOqj4s/gPINj1H8FovMHgPxVr1p+qpoGsvLXuiiv3kvJ4P/Va+NaqUgE+G1r
VOyaGdRTsO2yOhlaSaN7YCI5U/75hQcEWBqsUOW+IIV4GVUapVQcyRsS0JscD+3o
6lR5JWwB70mYVzJsBJKAHIn79jt9owLa9eqsGRi//L+Ytr+5QJb4llYWkXrQLKbk
1l2vFSP5CJSjCBPwlZEXF66D70Y3inRK7msG8QlD5doDjWvyKJz4ho/Au3cMQ/tF
UBejOggmDtIPJOCxvKKV1GzuXuU=
-----END CERTIFICATE-----
-----BEGIN CERTIFICATE-----
MIIGOjCCBCKgAwIBAgIBATANBgkqhkiG9w0BAQsFADCBsDELMAkGA1UEBhMCQVUx
DDAKBgNVBAgMA05TVzEPMA0GA1UEBwwGU3lkbmV5MRQwEgYDVQQKDAtMT0xJTlRF
Uk5FVDEqMCgGA1UECwwhTE9MSU5URVJORVQgQ2VydGlmaWNhdGUgQXV0aG9yaXR5
MRwwGgYDVQQDDBNMT0xJTlRFUk5FVCBSb290IENBMSIwIAYJKoZIhvcNAQkBFhNs
b2xAbG9saW50ZXJuZXQueHl6MB4XDTE2MDUyMjA2MzgwMVoXDTI2MDUyMDA2Mzgw
MVowgacxCzAJBgNVBAYTAkFVMQwwCgYDVQQIDANOU1cxFDASBgNVBAoMC0xPTElO
VEVSTkVUMSowKAYDVQQLDCFMT0xJTlRFUk5FVCBDZXJ0aWZpY2F0ZSBBdXRob3Jp
dHkxJDAiBgNVBAMMG0xPTElOVEVSTkVUIEludGVybWVkaWF0ZSBDQTEiMCAGCSqG
SIb3DQEJARYTbG9sQGxvbGludGVybmV0Lnh5ejCCAiIwDQYJKoZIhvcNAQEBBQAD
ggIPADCCAgoCggIBAMQHR1sp7E/sZzmLLIlQas46tMrydcLvDPaWZX8KcfTXrG3q
GEiWpCr5N5WbMkET2nCt0Utj8BeEh2Sx9wwe1Yqr0alUxB7Jgdr1WcsfYL2eOFdE
LpFybD3YEsFb1MPRIrA8QSTwWja+H6/Bbk0SzmGrp0ynDXuGScUAjcWOtnJY5TEg
wrHTLpeBGF3N+/a9z8h0sgRUjdERk0s9iGCg51ALc8HFr5UIq8QCsL/NRuR/2AWE
/yOWMJNmMYlgXiDMYW9DRgnAACIDl2bSNIQWRUqGW7CHF8m0fEWYmA7Q2umtuWk6
y11S6uWSgSyKw+mX++g+Kw3Bj5D43O0/3P9KKrPRnAqQspDrFMa73RgWqSBtP9po
5dGf/QAT73iM+Ozxr0pOaOxpYc+a1y7MoKHsCacsv+KCY44UzrM4ZOM3RxBaRica
jm/4i8ofF+ZdY9ijlrO6AFqweB3Z6ZxQnr6IyvpKvLF8Qz0xA71tI1U65nn973aj
O2szlMj9B6kseCMcsCIxedphKw/piJ2Smew6XKRyVRVSxV2Q9cftyNa6tYv4qVSp
DqWlFPjVDAF4hILxtUhEycCbnP0hjEr7sIbAtjtv6ELIFqVlebBEMILKNYu4PUTm
KKvn8hXfYgvOhlroCGs+uB7cY0lz6HWOIyDKYkXEZx9fIV23VmzIlktc7GzdAgMB
AAGjZjBkMB0GA1UdDgQWBBTikzfhdEg9JNI2IEzAiUR5mi9c7jAfBgNVHSMEGDAW
gBQzQNlTBTbrN1peDnqk9SbJ7EI6YDASBgNVHRMBAf8ECDAGAQH/AgEAMA4GA1Ud
DwEB/wQEAwIBhjANBgkqhkiG9w0BAQsFAAOCAgEAofvxURqLjr1ydOkQT5TkMyBQ
4hVb3OXnnkQ+XQ1B3FMXUlqUIv9O360Sf5JNV2UzxeZ8R0qrOjs5iBilNvx0KFFL
RcvPiOGRl4NSs5DxkS9xPCSj9gZAxH9dRvyKFvcWeegPIn/EM+r0JXk0u09Cn/JS
diMIy6U2UxVVRDC3IFtJjAeS6nEGcnBBpQiwqiFUVB3JhoRVblEgYZI81D3tWAPu
sDs0SM/JMHkt7V6rSotjGIkd4MU0y3tpnjjYaljLSMzGTZ0w6d0meVT3KMqZ0lWO
nlngzpKvie33fOrCT9Lv7NKTzknqa37mUHHSrH83NvHH/BUwd0HJ36aEQ5Y9hmP/
1zv3LQAfxeWmHI/N7B6xyyfCzmp03DOVHAdt23JfHPxSKuIn+k/h7jb4YATVXT2U
lbtrf41jBBJkY+IOXNgtwkTd7Wkovn52QM4hykGs02E28+hDlIr6NpRAI5B0svQm
5VIJHDhLeIh+QCcOE3m8+LohJrrfHUErQAOoLj9UUbURSAmo6eQgi3Zu8hTAQKOZ
xxJ16sSDAw7ZVtViUgqqipsgbYQcwnQFyM56U8xkjpeSbd2F2Wp1ujXrDpDrR1Ki
MLm2Zy3hS4qOzp2pyjjkwWpQSNRn6IsDtMEf7NRFsMWHlXbgusD7i60eysye40oV
1iA4s5/IMf443jVddxY=
-----END CERTIFICATE-----
-----BEGIN CERTIFICATE-----
MIIGSDCCBDCgAwIBAgIJAJO91bPgqejWMA0GCSqGSIb3DQEBCwUAMIGwMQswCQYD
VQQGEwJBVTEMMAoGA1UECAwDTlNXMQ8wDQYDVQQHDAZTeWRuZXkxFDASBgNVBAoM
C0xPTElOVEVSTkVUMSowKAYDVQQLDCFMT0xJTlRFUk5FVCBDZXJ0aWZpY2F0ZSBB
dXRob3JpdHkxHDAaBgNVBAMME0xPTElOVEVSTkVUIFJvb3QgQ0ExIjAgBgkqhkiG
9w0BCQEWE2xvbEBsb2xpbnRlcm5ldC54eXowHhcNMTYwNTIyMDYzMTEzWhcNMzYw
NTE3MDYzMTEzWjCBsDELMAkGA1UEBhMCQVUxDDAKBgNVBAgMA05TVzEPMA0GA1UE
BwwGU3lkbmV5MRQwEgYDVQQKDAtMT0xJTlRFUk5FVDEqMCgGA1UECwwhTE9MSU5U
RVJORVQgQ2VydGlmaWNhdGUgQXV0aG9yaXR5MRwwGgYDVQQDDBNMT0xJTlRFUk5F
VCBSb290IENBMSIwIAYJKoZIhvcNAQkBFhNsb2xAbG9saW50ZXJuZXQueHl6MIIC
IjANBgkqhkiG9w0BAQEFAAOCAg8AMIICCgKCAgEAsBzGXHfiphE9L/vKsOkEQasq
ijNXN+5rD/9KL9a29XlilJXhaWjKbvfC9c8Ax2D7bsHD5bVmXV7c9R8Hfjnj+2ME
1oO0MchiBJxgX1JppMP5HihXNaTwDvrDq5AvieXt3rB4/s+3ZJCGCHPyhIR3XTBp
12goaJPrrTsgGP+wEO+kKRpPdHcBgUEZXkYdSmHXDJvFbEkblPabcL0aB1HdLhtN
CcKOERlXnQmljhRjeVco6vknfbaX5HW3phUWrrtgfU5RHsCfjzw574NG/RcUGoje
Fxv8mA/cObajKEl19uHEwj8Al3HWGkrMCPsYaOlKltGpPe+TVlNQ/IBJIHYQGAJc
3I2rHGF27CGwMdjIszBphlRT0EQm87pqQRnHtmo92cZQkAVJFLw2Skky3oCQBocn
7hF5i022OhVeiTe0PSW7QvcPxmu1NqEpA8FEcJz16Jfz3OW5/K/OZzx9xw+RoJWY
J1N2zH/nSFHW6IpFruxSz+A8zpE7rfz2mZCDZ8xPgLeloRVSM1vrsITDuiljEH1k
oubZtjBr961nL3lZVPAdwE/TQ9WkLQxQPlh37rlx0deEgIGkj4uFTEz6yAIk81oG
7z8cP0U+4K6wca9hRZRCkfFw/IR/l/KA4anPul3ud19K3y5y4yb8cnAnFo+0/qAk
G7iIAPCa8fV2YhZCkHMCAwEAAaNjMGEwHQYDVR0OBBYEFDNA2VMFNus3Wl4OeqT1
JsnsQjpgMB8GA1UdIwQYMBaAFDNA2VMFNus3Wl4OeqT1JsnsQjpgMA8GA1UdEwEB
/wQFMAMBAf8wDgYDVR0PAQH/BAQDAgGGMA0GCSqGSIb3DQEBCwUAA4ICAQCWj3bJ
OoKaqXXuTCocRvABopac+bjlQUVii01wtfXoaRrN5558EHDbOGHXg8ddSWj/JNrr
0H9CLEg9LwmoDcC2iVeQtCgqJQ4yGogKb/8isasQWwwUu+LUJXn99DPGVWEKOoMz
kzwBrZCQ7QxKXISXb7FEkWPm7XEqybbb5qs29cw8k0vkb9cmiHkB1Rqq5ou7S0IF
lGJkm0xcoA7Oa+iSrZ+YTnE2Avuuk/6aJhC6v2iH6t2zwXdtH31ZAdKPnvDdzROn
1dbtz6rG/SyQ9CerJl0eHH0ub//e+25lKKZXT4c6SdtuVi6HOut3q8UVqeD2icJj
9nAdNQZOkHeMvFj3+15VZyHSsuUa1IB+KubYQED7CAw2onFgODgImBQShtJrP0iN
XlkXIFwhcVYCzPmz2UtQzjdwlJfqOHucMBp8Bmi5TzeMcMxAhcqxxxOAp+0G8rZx
UK2V37MRQQEPjNCv7uhCArXEvo9Zo9yNbD/24X6+AFiMZax4oUQi4ZmNK97NqpwU
xKSnT/vnRsedlLzjVWTNmzckVGbJx9kpC26kzZ38LFs16bXKnn4lC9EGm1iOpK21
m628eJ578D5BgVGQuDEjOvZDCh55glhdsVfcGQ7Inj3NNCVGT/YmUA0TSaAC9G/4
9w5Mkacy9tCdBQ4gxULXBPnx76DPAhfl2D0XvQ==
-----END CERTIFICATE-----
