Certificate:
    Data:
        Version: 3 (0x2)
        Serial Number: 34 (0x22)
    Signature Algorithm: sha256WithRSAEncryption
        Issuer: C=AU, ST=NSW, O=LOLINTERNET, OU=LOLINTERNET Certificate Authority, CN=LOLINTERNET Intermediate CA/emailAddress=lol@lolinternet.xyz
        Validity
            Not Before: Apr  6 05:59:58 2019 GMT
            Not After : Jul 19 05:59:58 2022 GMT
        Subject: C=AU, ST=NSW, O=LOLINTERNET, OU=LOLINTERNET, CN=goat.lolinternet.xyz
        Subject Public Key Info:
            Public Key Algorithm: rsaEncryption
                Public-Key: (4096 bit)
                Modulus:
                    00:a4:44:d1:f8:cc:bf:8c:8e:2c:68:ca:5a:c5:15:
                    ef:12:68:80:f2:2e:d4:77:68:78:0d:81:9a:77:ce:
                    1e:8c:db:50:41:d6:ea:35:b9:03:e5:67:91:e0:ff:
                    98:b3:43:9d:41:24:07:80:0d:15:93:7a:ca:c8:da:
                    1a:74:7b:74:45:50:4f:57:dd:fa:b2:14:d4:f0:57:
                    89:64:6f:76:a9:41:bf:dd:e4:d7:3f:28:bc:3c:9b:
                    97:77:c6:97:b2:e2:c2:38:72:0c:f8:a1:3b:12:68:
                    76:a2:32:1c:61:f0:b1:98:d9:0b:a3:cd:60:16:27:
                    a1:59:e9:28:d9:ac:03:04:b4:4e:ee:64:1f:72:b4:
                    97:1b:e3:f3:51:a1:3c:5c:5a:bc:6b:5c:9a:7b:4a:
                    ec:c8:dd:1b:98:18:bb:36:97:90:cd:d6:06:2a:7b:
                    a9:09:64:9f:6d:ad:a5:a2:45:f3:ea:0f:19:35:bc:
                    77:a9:cf:cb:15:59:5e:b3:f9:57:60:c4:81:57:27:
                    09:3c:f4:1c:e8:ea:3c:31:f2:ac:cf:d6:3f:96:3b:
                    0a:f4:16:4f:f6:53:a3:2e:a2:d3:40:23:1f:8e:e0:
                    1a:57:da:64:0f:6d:09:e6:33:1b:07:3d:43:09:a6:
                    dc:a5:ab:d5:c0:a0:7a:c0:6a:4d:c2:1b:fd:65:bd:
                    b2:d0:8e:11:91:64:5e:66:5d:a6:1b:48:e5:26:44:
                    2f:08:ce:01:89:e2:c4:23:e1:63:09:6b:17:90:4a:
                    c6:e3:62:c1:48:04:24:1e:86:bf:fa:04:61:b8:f0:
                    37:5a:b0:9e:61:6b:6a:5e:b1:b2:ce:4a:da:9d:29:
                    e8:ca:c8:b7:70:f1:ba:6a:aa:b6:c3:34:03:b0:d3:
                    e2:6a:54:0b:1c:f9:0e:c6:b7:df:b5:01:d9:ef:9d:
                    08:88:e9:0e:ba:ff:d7:5f:07:79:84:0c:36:44:99:
                    d2:e7:71:04:32:15:77:8a:4d:17:f6:dc:11:b5:a2:
                    ed:e4:36:5b:59:66:ec:2f:32:9f:33:04:b1:30:fe:
                    db:db:e2:73:1a:75:db:81:82:68:b9:8a:f0:af:0d:
                    5a:ef:16:af:7b:eb:58:da:00:37:a0:64:ea:3e:f7:
                    28:bf:e7:65:ec:bb:f1:e5:e6:8c:b2:6c:b3:4f:be:
                    c1:3c:80:d5:ea:99:3d:a1:76:9e:44:66:49:c7:9f:
                    db:2e:1b:fd:98:d9:c5:3b:6d:01:4a:85:4d:08:4d:
                    f7:0f:82:38:8c:16:1d:b7:0c:2a:a2:0d:a1:fb:06:
                    1c:45:37:fe:d3:07:a1:26:1d:1c:8a:71:c5:55:7e:
                    04:a5:a2:40:d5:8d:4e:b5:d8:1d:bd:13:03:20:28:
                    49:18:45
                Exponent: 65537 (0x10001)
        X509v3 extensions:
            X509v3 Basic Constraints: 
                CA:FALSE
            Netscape Cert Type: 
                SSL Server
            X509v3 Subject Key Identifier: 
                38:FA:4E:79:34:7F:84:BB:33:7D:2A:D9:C6:BB:B1:A7:C2:C7:33:05
            X509v3 Authority Key Identifier: 
                keyid:E2:93:37:E1:74:48:3D:24:D2:36:20:4C:C0:89:44:79:9A:2F:5C:EE
                DirName:/C=AU/ST=NSW/L=Sydney/O=LOLINTERNET/OU=LOLINTERNET Certificate Authority/CN=LOLINTERNET Root CA/emailAddress=lol@lolinternet.xyz
                serial:01

            X509v3 Key Usage: critical
                Digital Signature, Key Encipherment
            X509v3 Extended Key Usage: 
                TLS Web Server Authentication
            X509v3 Subject Alternative Name: 
                DNS:update.code.visualstudio.com, DNS:az764295.vo.msecnd.net, DNS:marketplace.visualstudio.com
    Signature Algorithm: sha256WithRSAEncryption
         83:5f:f3:ab:16:d7:1a:61:ff:8e:f2:98:d0:89:09:42:6a:ac:
         cc:e2:97:be:2b:72:81:10:44:ef:bc:80:86:7b:82:9d:52:3e:
         3c:82:59:01:c9:5d:98:17:c4:99:c5:6a:5b:f7:1f:17:16:b8:
         17:d2:1c:09:c7:64:76:47:25:c9:ff:39:ab:c0:61:df:05:a2:
         1c:1a:af:7f:8f:ef:fb:db:18:50:be:29:ba:50:dc:7a:b8:9f:
         be:59:18:d8:76:1d:d7:70:78:d1:76:45:8c:f9:69:34:14:1f:
         d9:b1:90:b3:93:fa:e4:95:25:13:34:81:f2:52:11:a8:4f:c0:
         d3:53:7b:c1:d0:44:71:6c:5b:8b:08:3f:83:64:78:5e:7d:29:
         e9:ad:d1:6b:6e:3c:d6:8e:ec:80:71:41:5b:e8:98:4e:a3:67:
         85:b7:3e:85:c8:fe:a6:c5:a9:70:06:66:9f:c6:43:ad:a2:ab:
         91:f8:2a:3f:4f:b9:7b:f3:a5:c3:d3:4d:46:72:b8:be:3c:0e:
         97:bc:87:3a:4d:35:30:91:50:27:10:c3:16:96:85:d5:a2:b1:
         aa:25:42:1e:53:f2:c6:07:70:7f:23:49:95:1d:42:3d:74:4b:
         3f:a6:6e:1b:b1:2a:d0:f3:9f:84:1c:0a:6e:10:b7:29:83:af:
         15:e3:77:e4:93:69:b8:6e:48:5b:be:0c:ff:3c:28:d1:d7:9e:
         02:8a:a9:f1:01:e3:50:91:3a:eb:29:cd:44:22:12:16:05:0e:
         53:4b:df:e9:d3:fd:b7:b5:df:6b:8a:a1:ef:d3:3f:aa:69:70:
         3a:0e:4b:b0:37:d1:50:22:56:d2:47:b1:b7:3a:9c:70:64:b6:
         40:02:bf:62:6d:f9:a8:a8:8a:4f:d0:e4:33:6d:ae:25:fe:e8:
         8a:db:7e:fb:b4:aa:07:d2:6f:88:0d:22:16:bb:62:2f:0d:58:
         ac:95:27:71:7c:71:82:3e:12:3a:1c:73:66:b7:0e:3b:dc:a0:
         75:ae:8a:09:a1:56:ec:8a:62:65:a2:3b:e5:08:5e:83:ad:c2:
         d4:f3:d6:14:c5:0f:4c:10:7f:52:47:0e:d8:34:32:ae:97:0e:
         16:d3:bb:bc:7b:cb:d3:0e:a8:b3:f0:41:5f:a0:8b:32:6d:9f:
         f4:70:30:26:e4:85:1c:da:3d:21:35:c0:d8:1e:8c:92:44:3a:
         47:e2:87:eb:3b:ec:1f:28:b8:5a:a5:e0:13:4a:3b:7a:84:d2:
         c4:d7:3c:de:41:a7:1e:dd:e9:f2:67:14:1b:2e:37:b8:c7:c3:
         03:9e:12:08:66:a2:63:55:e6:51:e3:0a:e4:58:bb:f4:63:ab:
         6e:8f:6b:e8:52:f5:a7:25
-----BEGIN CERTIFICATE-----
MIIHMDCCBRigAwIBAgIBIjANBgkqhkiG9w0BAQsFADCBpzELMAkGA1UEBhMCQVUx
DDAKBgNVBAgMA05TVzEUMBIGA1UECgwLTE9MSU5URVJORVQxKjAoBgNVBAsMIUxP
TElOVEVSTkVUIENlcnRpZmljYXRlIEF1dGhvcml0eTEkMCIGA1UEAwwbTE9MSU5U
RVJORVQgSW50ZXJtZWRpYXRlIENBMSIwIAYJKoZIhvcNAQkBFhNsb2xAbG9saW50
ZXJuZXQueHl6MB4XDTE5MDQwNjA1NTk1OFoXDTIyMDcxOTA1NTk1OFowZjELMAkG
A1UEBhMCQVUxDDAKBgNVBAgMA05TVzEUMBIGA1UECgwLTE9MSU5URVJORVQxFDAS
BgNVBAsMC0xPTElOVEVSTkVUMR0wGwYDVQQDDBRnb2F0LmxvbGludGVybmV0Lnh5
ejCCAiIwDQYJKoZIhvcNAQEBBQADggIPADCCAgoCggIBAKRE0fjMv4yOLGjKWsUV
7xJogPIu1HdoeA2BmnfOHozbUEHW6jW5A+VnkeD/mLNDnUEkB4ANFZN6ysjaGnR7
dEVQT1fd+rIU1PBXiWRvdqlBv93k1z8ovDybl3fGl7LiwjhyDPihOxJodqIyHGHw
sZjZC6PNYBYnoVnpKNmsAwS0Tu5kH3K0lxvj81GhPFxavGtcmntK7MjdG5gYuzaX
kM3WBip7qQlkn22tpaJF8+oPGTW8d6nPyxVZXrP5V2DEgVcnCTz0HOjqPDHyrM/W
P5Y7CvQWT/ZToy6i00AjH47gGlfaZA9tCeYzGwc9Qwmm3KWr1cCgesBqTcIb/WW9
stCOEZFkXmZdphtI5SZELwjOAYnixCPhYwlrF5BKxuNiwUgEJB6Gv/oEYbjwN1qw
nmFral6xss5K2p0p6MrIt3DxumqqtsM0A7DT4mpUCxz5Dsa337UB2e+dCIjpDrr/
118HeYQMNkSZ0udxBDIVd4pNF/bcEbWi7eQ2W1lm7C8ynzMEsTD+29vicxp124GC
aLmK8K8NWu8Wr3vrWNoAN6Bk6j73KL/nZey78eXmjLJss0++wTyA1eqZPaF2nkRm
Scef2y4b/ZjZxTttAUqFTQhN9w+COIwWHbcMKqINofsGHEU3/tMHoSYdHIpxxVV+
BKWiQNWNTrXYHb0TAyAoSRhFAgMBAAGjggGlMIIBoTAJBgNVHRMEAjAAMBEGCWCG
SAGG+EIBAQQEAwIGQDAdBgNVHQ4EFgQUOPpOeTR/hLszfSrZxruxp8LHMwUwgd0G
A1UdIwSB1TCB0oAU4pM34XRIPSTSNiBMwIlEeZovXO6hgbakgbMwgbAxCzAJBgNV
BAYTAkFVMQwwCgYDVQQIDANOU1cxDzANBgNVBAcMBlN5ZG5leTEUMBIGA1UECgwL
TE9MSU5URVJORVQxKjAoBgNVBAsMIUxPTElOVEVSTkVUIENlcnRpZmljYXRlIEF1
dGhvcml0eTEcMBoGA1UEAwwTTE9MSU5URVJORVQgUm9vdCBDQTEiMCAGCSqGSIb3
DQEJARYTbG9sQGxvbGludGVybmV0Lnh5eoIBATAOBgNVHQ8BAf8EBAMCBaAwEwYD
VR0lBAwwCgYIKwYBBQUHAwEwXQYDVR0RBFYwVIIcdXBkYXRlLmNvZGUudmlzdWFs
c3R1ZGlvLmNvbYIWYXo3NjQyOTUudm8ubXNlY25kLm5ldIIcbWFya2V0cGxhY2Uu
dmlzdWFsc3R1ZGlvLmNvbTANBgkqhkiG9w0BAQsFAAOCAgEAg1/zqxbXGmH/jvKY
0IkJQmqszOKXvitygRBE77yAhnuCnVI+PIJZAcldmBfEmcVqW/cfFxa4F9IcCcdk
dkclyf85q8Bh3wWiHBqvf4/v+9sYUL4pulDcerifvlkY2HYd13B40XZFjPlpNBQf
2bGQs5P65JUlEzSB8lIRqE/A01N7wdBEcWxbiwg/g2R4Xn0p6a3Ra2481o7sgHFB
W+iYTqNnhbc+hcj+psWpcAZmn8ZDraKrkfgqP0+5e/Olw9NNRnK4vjwOl7yHOk01
MJFQJxDDFpaF1aKxqiVCHlPyxgdwfyNJlR1CPXRLP6ZuG7Eq0POfhBwKbhC3KYOv
FeN35JNpuG5IW74M/zwo0deeAoqp8QHjUJE66ynNRCISFgUOU0vf6dP9t7Xfa4qh
79M/qmlwOg5LsDfRUCJW0kextzqccGS2QAK/Ym35qKiKT9DkM22uJf7oitt++7Sq
B9JviA0iFrtiLw1YrJUncXxxgj4SOhxzZrcOO9ygda6KCaFW7IpiZaI75Qheg63C
1PPWFMUPTBB/UkcO2DQyrpcOFtO7vHvL0w6os/BBX6CLMm2f9HAwJuSFHNo9ITXA
2B6MkkQ6R+KH6zvsHyi4WqXgE0o7eoTSxNc83kGnHt3p8mcUGy43uMfDA54SCGai
Y1XmUeMK5Fi79GOrbo9r6FL1pyU=
-----END CERTIFICATE-----
